target datalayout = "e-m:e-p270:32:32-p271:32:32-p272:64:64-i64:64-i128:128-f80:128-n8:16:32:64-S128"
target triple = "x86_64-pc-linux-gnu"

%struct.__va_list_tag = type { i32, i32, ptr, ptr }
%"class.folly::detail::ScopeGuardImplBase" = type { i8 }
%"class.folly::detail::ScopeGuardImpl.6" = type { %"class.folly::detail::ScopeGuardImplBase", %class.anon.7 }
%class.anon.7 = type { ptr }

; Function Attrs: inlinehint mustprogress nounwind uwtable
define internal void @"_ZZN5folly13stringAppendfEPNSt7__cxx1112basic_stringIcSt11char_traitsIcESaIcEEEPKczENK3$_0clEv"(ptr noundef nonnull align 8 dereferenceable(8) %0) #2 align 2 {
  %2 = alloca ptr, align 8
  store ptr %0, ptr %2, align 8, !tbaa !32
  %3 = load ptr, ptr %2, align 8
  %4 = getelementptr inbounds nuw %class.anon.7, ptr %3, i32 0, i32 0
  %5 = load ptr, ptr %4, align 8, !tbaa !109
  %6 = getelementptr inbounds [1 x %struct.__va_list_tag], ptr %5, i64 0, i64 0
  call void @llvm.va_end.p0(ptr %6)
  ret void
}

; Function Attrs: mustprogress nounwind uwtable
define linkonce_odr void @_ZN5folly6detail18ScopeGuardImplBase7dismissEv(ptr noundef nonnull align 1 dereferenceable(1) %0) #1 comdat align 2 {
  %2 = alloca ptr, align 8
  store ptr %0, ptr %2, align 8, !tbaa !40
  %3 = load ptr, ptr %2, align 8
  %4 = getelementptr inbounds nuw %"class.folly::detail::ScopeGuardImplBase", ptr %3, i32 0, i32 0
  store i8 1, ptr %4, align 1, !tbaa !35
  ret void
}

; Function Attrs: mustprogress nounwind uwtable
define linkonce_odr void @_ZN5folly6detail18ScopeGuardImplBaseC2Eb(ptr noundef nonnull align 1 dereferenceable(1) %0, i1 noundef zeroext %1) unnamed_addr #1 comdat align 2 {
  %3 = alloca ptr, align 8
  %4 = alloca i8, align 1
  store ptr %0, ptr %3, align 8, !tbaa !40
  %5 = zext i1 %1 to i8
  store i8 %5, ptr %4, align 1, !tbaa !43
  %6 = load ptr, ptr %3, align 8
  %7 = getelementptr inbounds nuw %"class.folly::detail::ScopeGuardImplBase", ptr %6, i32 0, i32 0
  %8 = load i8, ptr %4, align 1, !tbaa !43, !range !38, !noundef !39
  %9 = trunc i8 %8 to i1
  %10 = zext i1 %9 to i8
  store i8 %10, ptr %7, align 1, !tbaa !35
  ret void
}

; Function Attrs: mustprogress nounwind uwtable
define linkonce_odr i8 @_ZN5folly6detail18ScopeGuardImplBase19makeEmptyScopeGuardEv() #1 comdat align 2 {
  %1 = alloca %"class.folly::detail::ScopeGuardImplBase", align 1
  call void @_ZN5folly6detail18ScopeGuardImplBaseC2Eb(ptr noundef nonnull align 1 dereferenceable(1) %1, i1 noundef zeroext false) #27
  %2 = getelementptr inbounds nuw %"class.folly::detail::ScopeGuardImplBase", ptr %1, i32 0, i32 0
  %3 = load i8, ptr %2, align 1
  ret i8 %3
}

; Function Attrs: alwaysinline mustprogress nounwind uwtable
define internal void @"_ZN5folly15catch_exceptionIRZNS_13stringAppendfEPNSt7__cxx1112basic_stringIcSt11char_traitsIcESaIcEEEPKczE3$_0PDoFvvEJEvEET2_OT_OT0_DpOT1_"(ptr noundef nonnull align 8 dereferenceable(8) %0, ptr noundef nonnull align 8 dereferenceable(8) %1) #9 {
  %3 = alloca ptr, align 8
  %4 = alloca ptr, align 8
  store ptr %0, ptr %3, align 8, !tbaa !32
  store ptr %1, ptr %4, align 8, !tbaa !32
  %5 = load ptr, ptr %3, align 8, !tbaa !32
  call void @"_ZZN5folly13stringAppendfEPNSt7__cxx1112basic_stringIcSt11char_traitsIcESaIcEEEPKczENK3$_0clEv"(ptr noundef nonnull align 8 dereferenceable(8) %5) #27
  ret void
}

; Function Attrs: noinline noreturn nounwind uwtable
define linkonce_odr hidden void @__clang_call_terminate(ptr noundef %0) #8 comdat {
  %2 = call ptr @__cxa_begin_catch(ptr %0) #27
  call void @_ZSt9terminatev() #28
  unreachable
}

; Function Attrs: mustprogress nounwind uwtable
define internal void @"_ZN5folly6detail14ScopeGuardImplIZNS_13stringAppendfEPNSt7__cxx1112basic_stringIcSt11char_traitsIcESaIcEEEPKczE3$_0Lb1EEC2ISB_EEOT_ONS0_18ScopeGuardImplBaseE"(ptr noundef nonnull align 8 dereferenceable(16) %0, ptr noundef nonnull align 8 dereferenceable(8) %1, ptr noundef nonnull align 1 dereferenceable(1) %2) unnamed_addr #1 align 2 {
  %4 = alloca ptr, align 8
  %5 = alloca ptr, align 8
  %6 = alloca ptr, align 8
  store ptr %0, ptr %4, align 8, !tbaa !107
  store ptr %1, ptr %5, align 8, !tbaa !32
  store ptr %2, ptr %6, align 8, !tbaa !40
  %7 = load ptr, ptr %4, align 8
  call void @_ZN5folly6detail18ScopeGuardImplBaseC2Eb(ptr noundef nonnull align 1 dereferenceable(1) %7, i1 noundef zeroext false) #27
  %8 = getelementptr inbounds nuw %"class.folly::detail::ScopeGuardImpl.6", ptr %7, i32 0, i32 1
  %9 = load ptr, ptr %5, align 8, !tbaa !32
  call void @llvm.memcpy.p0.p0.i64(ptr align 8 %8, ptr align 8 %9, i64 8, i1 false), !tbaa.struct !42
  %10 = load ptr, ptr %6, align 8, !tbaa !40
  call void @_ZN5folly6detail18ScopeGuardImplBase7dismissEv(ptr noundef nonnull align 1 dereferenceable(1) %10) #27
  ret void
}

; Function Attrs: mustprogress nounwind uwtable
define internal i8 @"_ZN5folly6detail14ScopeGuardImplIZNS_13stringAppendfEPNSt7__cxx1112basic_stringIcSt11char_traitsIcESaIcEEEPKczE3$_0Lb1EE12makeFailsafeESt17integral_constantIbLb1EEPKv"(ptr noundef %0) #1 align 2 {
  %2 = alloca %"class.folly::detail::ScopeGuardImplBase", align 1
  %3 = alloca ptr, align 8
  store ptr %0, ptr %3, align 8, !tbaa !32
  %4 = call i8 @_ZN5folly6detail18ScopeGuardImplBase19makeEmptyScopeGuardEv() #27
  %5 = getelementptr inbounds nuw %"class.folly::detail::ScopeGuardImplBase", ptr %2, i32 0, i32 0
  store i8 %4, ptr %5, align 1
  %6 = getelementptr inbounds nuw %"class.folly::detail::ScopeGuardImplBase", ptr %2, i32 0, i32 0
  %7 = load i8, ptr %6, align 1
  ret i8 %7
}

; Function Attrs: mustprogress nounwind uwtable
define internal void @"_ZN5folly6detail14ScopeGuardImplIZNS_13stringAppendfEPNSt7__cxx1112basic_stringIcSt11char_traitsIcESaIcEEEPKczE3$_0Lb1EE7executeEv"(ptr noundef nonnull align 8 dereferenceable(16) %0) #1 align 2 {
  %2 = alloca ptr, align 8
  %3 = alloca ptr, align 8
  store ptr %0, ptr %2, align 8, !tbaa !107
  %4 = load ptr, ptr %2, align 8
  %5 = getelementptr inbounds nuw %"class.folly::detail::ScopeGuardImpl.6", ptr %4, i32 0, i32 1
  call void @llvm.lifetime.start.p0(i64 8, ptr %3) #27
  store ptr @_ZN5folly6detail18ScopeGuardImplBase9terminateEv, ptr %3, align 8, !tbaa !32
  call void @"_ZN5folly15catch_exceptionIRZNS_13stringAppendfEPNSt7__cxx1112basic_stringIcSt11char_traitsIcESaIcEEEPKczE3$_0PDoFvvEJEvEET2_OT_OT0_DpOT1_"(ptr noundef nonnull align 8 dereferenceable(8) %5, ptr noundef nonnull align 8 dereferenceable(8) %3) #27
  call void @llvm.lifetime.end.p0(i64 8, ptr %3) #27
  ret void
}

; Function Attrs: mustprogress nounwind uwtable
define internal void @"_ZN5folly6detail14ScopeGuardImplIZNS_13stringAppendfEPNSt7__cxx1112basic_stringIcSt11char_traitsIcESaIcEEEPKczE3$_0Lb1EEC2EOSB_"(ptr noundef nonnull align 8 dereferenceable(16) %0, ptr noundef nonnull align 8 dereferenceable(8) %1) unnamed_addr #1 align 2 personality ptr @__gxx_personality_v0 {
  %3 = alloca ptr, align 8
  %4 = alloca ptr, align 8
  %5 = alloca %"class.folly::detail::ScopeGuardImplBase", align 1
  store ptr %0, ptr %3, align 8, !tbaa !107
  store ptr %1, ptr %4, align 8, !tbaa !32
  %6 = load ptr, ptr %3, align 8
  %7 = load ptr, ptr %4, align 8, !tbaa !32
  call void @llvm.lifetime.start.p0(i64 1, ptr %5) #27
  %8 = load ptr, ptr %4, align 8, !tbaa !32
  %9 = call i8 @"_ZN5folly6detail14ScopeGuardImplIZNS_13stringAppendfEPNSt7__cxx1112basic_stringIcSt11char_traitsIcESaIcEEEPKczE3$_0Lb1EE12makeFailsafeESt17integral_constantIbLb1EEPKv"(ptr noundef %8) #27
  %10 = getelementptr inbounds nuw %"class.folly::detail::ScopeGuardImplBase", ptr %5, i32 0, i32 0
  store i8 %9, ptr %10, align 1
  invoke void @"_ZN5folly6detail14ScopeGuardImplIZNS_13stringAppendfEPNSt7__cxx1112basic_stringIcSt11char_traitsIcESaIcEEEPKczE3$_0Lb1EEC2ISB_EEOT_ONS0_18ScopeGuardImplBaseE"(ptr noundef nonnull align 8 dereferenceable(16) %6, ptr noundef nonnull align 8 dereferenceable(8) %7, ptr noundef nonnull align 1 dereferenceable(1) %5)
          to label %11 unwind label %12

11:                                               ; preds = %2
  call void @llvm.lifetime.end.p0(i64 1, ptr %5) #27
  ret void

12:                                               ; preds = %2
  %13 = landingpad { ptr, i32 }
          catch ptr null
  %14 = extractvalue { ptr, i32 } %13, 0
  call void @__clang_call_terminate(ptr %14) #28
  unreachable
}

; Function Attrs: mustprogress nounwind uwtable
define internal void @"_ZN5folly6detail14ScopeGuardImplIZNS_13stringAppendfEPNSt7__cxx1112basic_stringIcSt11char_traitsIcESaIcEEEPKczE3$_0Lb1EED2Ev"(ptr noundef nonnull align 8 dereferenceable(16) %0) unnamed_addr #1 align 2 {
  %2 = alloca ptr, align 8
  store ptr %0, ptr %2, align 8, !tbaa !107
  %3 = load ptr, ptr %2, align 8
  %4 = getelementptr inbounds nuw %"class.folly::detail::ScopeGuardImplBase", ptr %3, i32 0, i32 0
  %5 = load i8, ptr %4, align 8, !tbaa !35, !range !38, !noundef !39
  %6 = trunc i8 %5 to i1
  br i1 %6, label %8, label %7

7:                                                ; preds = %1
  call void @"_ZN5folly6detail14ScopeGuardImplIZNS_13stringAppendfEPNSt7__cxx1112basic_stringIcSt11char_traitsIcESaIcEEEPKczE3$_0Lb1EE7executeEv"(ptr noundef nonnull align 8 dereferenceable(16) %3) #27
  br label %8

8:                                                ; preds = %7, %1
  ret void
}

; Function Attrs: mustprogress uwtable
define noundef nonnull align 8 dereferenceable(32) ptr @_ZN5folly14stringVAppendfEPNSt7__cxx1112basic_stringIcSt11char_traitsIcESaIcEEEPKcP13__va_list_tag(ptr noundef %0, ptr noundef %1, ptr noundef %2) #0 {
  %4 = alloca ptr, align 8
  %5 = alloca ptr, align 8
  %6 = alloca ptr, align 8
  store ptr %0, ptr %4, align 8, !tbaa !46
  store ptr %1, ptr %5, align 8, !tbaa !14
  store ptr %2, ptr %6, align 8, !tbaa !28
  %7 = load ptr, ptr %4, align 8, !tbaa !46
  %8 = load ptr, ptr %5, align 8, !tbaa !14
  %9 = load ptr, ptr %6, align 8, !tbaa !28
  call void @_ZN5folly12_GLOBAL__N_117stringAppendfImplERNSt7__cxx1112basic_stringIcSt11char_traitsIcESaIcEEEPKcP13__va_list_tag(ptr noundef nonnull align 8 dereferenceable(32) %7, ptr noundef %8, ptr noundef %9)
  %10 = load ptr, ptr %4, align 8, !tbaa !46
  ret ptr %10
}

; Function Attrs: mustprogress nounwind uwtable
define internal void @"_ZN5folly6detailplIZNS_13stringAppendfEPNSt7__cxx1112basic_stringIcSt11char_traitsIcESaIcEEEPKczE3$_0EENS0_14ScopeGuardImplINSt5decayIT_E4typeELb1EEENS0_16ScopeGuardOnExitEOSE_"(ptr dead_on_unwind noalias writable sret(%"class.folly::detail::ScopeGuardImpl.6") align 8 %0, i32 noundef %1, ptr noundef nonnull align 8 dereferenceable(8) %2) #1 {
  %4 = alloca ptr, align 8
  %5 = alloca i32, align 4
  %6 = alloca ptr, align 8
  store ptr %0, ptr %4, align 8
  store i32 %1, ptr %5, align 4, !tbaa !30
  store ptr %2, ptr %6, align 8, !tbaa !32
  %7 = load ptr, ptr %6, align 8, !tbaa !32
  call void @"_ZN5folly6detail14ScopeGuardImplIZNS_13stringAppendfEPNSt7__cxx1112basic_stringIcSt11char_traitsIcESaIcEEEPKczE3$_0Lb1EEC2EOSB_"(ptr noundef nonnull align 8 dereferenceable(16) %0, ptr noundef nonnull align 8 dereferenceable(8) %7) #27
  ret void
}

; Function Attrs: mustprogress uwtable
define noundef nonnull align 8 dereferenceable(32) ptr @_ZN5folly13stringAppendfEPNSt7__cxx1112basic_stringIcSt11char_traitsIcESaIcEEEPKcz(ptr noundef %0, ptr noundef %1, ...) #0 personality ptr @__gxx_personality_v0 {
  %3 = alloca ptr, align 8
  %4 = alloca ptr, align 8
  %5 = alloca [1 x %struct.__va_list_tag], align 16
  %6 = alloca %"class.folly::detail::ScopeGuardImpl.6", align 8
  %7 = alloca %class.anon.7, align 8
  %8 = alloca ptr, align 8
  %9 = alloca i32, align 4
  store ptr %0, ptr %3, align 8, !tbaa !46
  store ptr %1, ptr %4, align 8, !tbaa !14
  call void @llvm.lifetime.start.p0(i64 24, ptr %5) #27
  %10 = getelementptr inbounds [1 x %struct.__va_list_tag], ptr %5, i64 0, i64 0
  call void @llvm.va_start.p0(ptr %10)
  call void @llvm.lifetime.start.p0(i64 16, ptr %6) #27
  call void @llvm.lifetime.start.p0(i64 8, ptr %7) #27
  %11 = getelementptr inbounds nuw %class.anon.7, ptr %7, i32 0, i32 0
  store ptr %5, ptr %11, align 8, !tbaa !28
  call void @"_ZN5folly6detailplIZNS_13stringAppendfEPNSt7__cxx1112basic_stringIcSt11char_traitsIcESaIcEEEPKczE3$_0EENS0_14ScopeGuardImplINSt5decayIT_E4typeELb1EEENS0_16ScopeGuardOnExitEOSE_"(ptr dead_on_unwind writable sret(%"class.folly::detail::ScopeGuardImpl.6") align 8 %6, i32 noundef 0, ptr noundef nonnull align 8 dereferenceable(8) %7)
  call void @llvm.lifetime.end.p0(i64 8, ptr %7) #27
  %12 = load ptr, ptr %3, align 8, !tbaa !46
  %13 = load ptr, ptr %4, align 8, !tbaa !14
  %14 = getelementptr inbounds [1 x %struct.__va_list_tag], ptr %5, i64 0, i64 0
  %15 = invoke noundef nonnull align 8 dereferenceable(32) ptr @_ZN5folly14stringVAppendfEPNSt7__cxx1112basic_stringIcSt11char_traitsIcESaIcEEEPKcP13__va_list_tag(ptr noundef %12, ptr noundef %13, ptr noundef %14)
          to label %16 unwind label %17

16:                                               ; preds = %2
  call void @"_ZN5folly6detail14ScopeGuardImplIZNS_13stringAppendfEPNSt7__cxx1112basic_stringIcSt11char_traitsIcESaIcEEEPKczE3$_0Lb1EED2Ev"(ptr noundef nonnull align 8 dereferenceable(16) %6) #27
  call void @llvm.lifetime.end.p0(i64 16, ptr %6) #27
  call void @llvm.lifetime.end.p0(i64 24, ptr %5) #27
  ret ptr %15

17:                                               ; preds = %2
  %18 = landingpad { ptr, i32 }
          cleanup
  %19 = extractvalue { ptr, i32 } %18, 0
  store ptr %19, ptr %8, align 8
  %20 = extractvalue { ptr, i32 } %18, 1
  store i32 %20, ptr %9, align 4
  call void @"_ZN5folly6detail14ScopeGuardImplIZNS_13stringAppendfEPNSt7__cxx1112basic_stringIcSt11char_traitsIcESaIcEEEPKczE3$_0Lb1EED2Ev"(ptr noundef nonnull align 8 dereferenceable(16) %6) #27
  call void @llvm.lifetime.end.p0(i64 16, ptr %6) #27
  call void @llvm.lifetime.end.p0(i64 24, ptr %5) #27
  br label %21

21:                                               ; preds = %17
  %22 = load ptr, ptr %8, align 8
  %23 = load i32, ptr %9, align 4
  %24 = insertvalue { ptr, i32 } poison, ptr %22, 0
  %25 = insertvalue { ptr, i32 } %24, i32 %23, 1
  resume { ptr, i32 } %25
}