; Function Attrs: mustprogress uwtable
define noundef nonnull align 8 dereferenceable(32) ptr @_ZN5folly13stringAppendfEPNSt7__cxx1112basic_stringIcSt11char_traitsIcESaIcEEEPKcz(ptr noundef nonnull returned %0, ptr noundef %1, ...) local_unnamed_addr #3 personality ptr @__gxx_personality_v0 {
  %3 = alloca [1 x %struct.__va_list_tag], align 16
  call void @llvm.lifetime.start.p0(i64 24, ptr nonnull %3) #26
  call void @llvm.va_start.p0(ptr nonnull %3)
  invoke fastcc void @_ZN5folly12_GLOBAL__N_117stringAppendfImplERNSt7__cxx1112basic_stringIcSt11char_traitsIcESaIcEEEPKcP13__va_list_tag(ptr noundef nonnull align 8 dereferenceable(32) %0, ptr noundef %1, ptr noundef nonnull %3)
          to label %"_ZN5folly6detail14ScopeGuardImplIZNS_13stringAppendfEPNSt7__cxx1112basic_stringIcSt11char_traitsIcESaIcEEEPKczE3$_0Lb1EED2Ev.exit" unwind label %"_ZN5folly6detail14ScopeGuardImplIZNS_13stringAppendfEPNSt7__cxx1112basic_stringIcSt11char_traitsIcESaIcEEEPKczE3$_0Lb1EED2Ev.exit7"

"_ZN5folly6detail14ScopeGuardImplIZNS_13stringAppendfEPNSt7__cxx1112basic_stringIcSt11char_traitsIcESaIcEEEPKczE3$_0Lb1EED2Ev.exit": ; preds = %2
  call void @llvm.va_end.p0(ptr nonnull %3)
  call void @llvm.lifetime.end.p0(i64 24, ptr nonnull %3) #26
  ret ptr %0

"_ZN5folly6detail14ScopeGuardImplIZNS_13stringAppendfEPNSt7__cxx1112basic_stringIcSt11char_traitsIcESaIcEEEPKczE3$_0Lb1EED2Ev.exit7": ; preds = %2
  %4 = landingpad { ptr, i32 }
          cleanup
  call void @llvm.va_end.p0(ptr nonnull %3)
  call void @llvm.lifetime.end.p0(i64 24, ptr nonnull %3) #26
  resume { ptr, i32 } %4
}